(lp0
(lp1
(lp2
S'gcc'
p3
aS'linux,programming'
p4
aa(lp5
(lp6
S'12-07-2014'
p7
aI3
aa(lp8
S'12-06-2014'
p9
aI2
aa(lp10
cdatetime
date
p11
(S'\x07\xde\x07\x13'
p12
tp13
Rp14
aS'4'
p15
aaaa(lp16
(lp17
S'vlan'
p18
aS'network'
p19
aa(lp20
(lp21
S'13-07-2014'
p22
aI3
aa(lp23
g7
aI1
aaaa(lp24
(lp25
S'apache'
p26
aS'linux'
p27
aa(lp28
(lp29
S'11-07-2014'
p30
aI3
aa(lp31
S'12-08-2014'
p32
aI5
aaaa(lp33
(lp34
S'git'
p35
aa(lp36
(lp37
g11
(S'\x07\xde\x07\x13'
p38
tp39
Rp40
aS'2'
p41
aaaa.lp42
(lp43
S'kvm'
p44
aa(lp45
(lp46
g11
(S'\x07\xde\x07\x15'
p47
tp48
Rp49
aS'5'
p50
aaaa.(lp51
(lp52
S'git'
p53
aa(lp54
(lp55
g11
(S'\x07\xde\x07\x13'
p56
tp57
Rp58
aS'2'
p59
aaaa.-2014'
p30
aI3
aa(lp31
S'12-08-2014'
p32
aI5
aaaa.(lp0
(lp1
(lp2
S'gcc'
p3
aS'linux,programming'
p4
aa(lp5
(lp6
S'12-07-2014'
p7
aI3
aa(lp8
S'12-06-2014'
p9
aI2
aa(lp10
cdatetime
date
p11
(S'\x07\xde\x07\x13'
p12
tp13
Rp14
aS'3'
p15
aaaa(lp16
(lp17
S'vlan'
p18
aS'network'
p19
aa(lp20
(lp21
S'13-07-2014'
p22
aI3
aa(lp23
g7
aI1
aaaa(lp24
(lp25
S'apache'
p26
aS'linux'
p27
aa(lp28
(lp29
S'11-07-2014'
p30
aI3
aa(lp31
S'12-08-2014'
p32
aI5
aaaa.(lp0
(lp1
(lp2
S'gcc'
p3
aS'linux,programming'
p4
aa(lp5
(lp6
S'12-07-2014'
p7
aI3
aa(lp8
S'12-06-2014'
p9
aI2
aa(lp10
cdatetime
date
p11
(S'\x07\xde\x07\x13'
p12
tp13
Rp14
aS'3'
p15
aaaa(lp16
(lp17
S'vlan'
p18
aS'network'
p19
aa(lp20
(lp21
S'13-07-2014'
p22
aI3
aa(lp23
g7
aI1
aaaa(lp24
(lp25
S'apache'
p26
aS'linux'
p27
aa(lp28
(lp29
S'11-07-2014'
p30
aI3
aa(lp31
S'12-08-2014'
p32
aI5
aaaa.